; Function Attrs: nounwind uwtable
define noalias nonnull ptr @l___private_Lean_Meta_Tactic_Grind_EMatchTheorem_0__Lean_Meta_Grind_hasChildWithSameNewBVars___lambda__1___boxed(ptr noundef %0, ptr noundef %1, ptr noundef %2, ptr noundef %3) #1 {
  tail call void @lean_inc_heartbeat() #9
  %5 = tail call noalias ptr @mi_malloc_small(i64 noundef 24) #9
  %6 = icmp eq ptr %5, null
  br i1 %6, label %7, label %l___private_Lean_Meta_Tactic_Grind_EMatchTheorem_0__Lean_Meta_Grind_hasChildWithSameNewBVars___lambda__1.exit

7:                                                ; preds = %4
  tail call void @lean_internal_panic_out_of_memory() #10
  unreachable

l___private_Lean_Meta_Tactic_Grind_EMatchTheorem_0__Lean_Meta_Grind_hasChildWithSameNewBVars___lambda__1.exit: ; preds = %4
  %8 = getelementptr inbounds nuw i8, ptr %5, i64 4
  store i32 1, ptr %5, align 4, !tbaa !4
  store i32 131096, ptr %8, align 4
  %9 = getelementptr inbounds nuw i8, ptr %5, i64 8
  store ptr inttoptr (i64 1 to ptr), ptr %9, align 8, !tbaa !9
  %10 = getelementptr inbounds nuw i8, ptr %5, i64 16
  store ptr %3, ptr %10, align 8, !tbaa !9
  %11 = ptrtoint ptr %2 to i64
  %12 = and i64 %11, 1
  %.not = icmp eq i64 %12, 0
  br i1 %.not, label %13, label %lean_dec.exit9

13:                                               ; preds = %l___private_Lean_Meta_Tactic_Grind_EMatchTheorem_0__Lean_Meta_Grind_hasChildWithSameNewBVars___lambda__1.exit
  %14 = load i32, ptr %2, align 4, !tbaa !4
  %15 = icmp sgt i32 %14, 1
  br i1 %15, label %16, label %18, !prof !11

16:                                               ; preds = %13
  %17 = add nsw i32 %14, -1
  store i32 %17, ptr %2, align 4, !tbaa !4
  br label %lean_dec.exit9

18:                                               ; preds = %13
  %.not.i = icmp eq i32 %14, 0
  br i1 %.not.i, label %lean_dec.exit9, label %19

19:                                               ; preds = %18
  tail call void @lean_dec_ref_cold(ptr noundef nonnull %2) #9
  br label %lean_dec.exit9

lean_dec.exit9:                                   ; preds = %19, %18, %16, %l___private_Lean_Meta_Tactic_Grind_EMatchTheorem_0__Lean_Meta_Grind_hasChildWithSameNewBVars___lambda__1.exit
  %20 = ptrtoint ptr %1 to i64
  %21 = and i64 %20, 1
  %.not14 = icmp eq i64 %21, 0
  br i1 %.not14, label %22, label %lean_dec.exit8

22:                                               ; preds = %lean_dec.exit9
  %23 = load i32, ptr %1, align 4, !tbaa !4
  %24 = icmp sgt i32 %23, 1
  br i1 %24, label %25, label %27, !prof !11

25:                                               ; preds = %22
  %26 = add nsw i32 %23, -1
  store i32 %26, ptr %1, align 4, !tbaa !4
  br label %lean_dec.exit8

27:                                               ; preds = %22
  %.not.i10 = icmp eq i32 %23, 0
  br i1 %.not.i10, label %lean_dec.exit8, label %28

28:                                               ; preds = %27
  tail call void @lean_dec_ref_cold(ptr noundef nonnull %1) #9
  br label %lean_dec.exit8

lean_dec.exit8:                                   ; preds = %28, %27, %25, %lean_dec.exit9
  %29 = ptrtoint ptr %0 to i64
  %30 = and i64 %29, 1
  %.not15 = icmp eq i64 %30, 0
  br i1 %.not15, label %31, label %lean_dec.exit

31:                                               ; preds = %lean_dec.exit8
  %32 = load i32, ptr %0, align 4, !tbaa !4
  %33 = icmp sgt i32 %32, 1
  br i1 %33, label %34, label %36, !prof !11

34:                                               ; preds = %31
  %35 = add nsw i32 %32, -1
  store i32 %35, ptr %0, align 4, !tbaa !4
  br label %lean_dec.exit

36:                                               ; preds = %31
  %.not.i12 = icmp eq i32 %32, 0
  br i1 %.not.i12, label %lean_dec.exit, label %37

37:                                               ; preds = %36
  tail call void @lean_dec_ref_cold(ptr noundef nonnull %0) #9
  br label %lean_dec.exit

lean_dec.exit:                                    ; preds = %37, %36, %34, %lean_dec.exit8
  ret ptr %5
}